; Function Attrs: nounwind uwtable
define internal fastcc ptr @argv2cdata(ptr noundef %0, i32 noundef %1, ptr noundef readonly captures(none) %2) unnamed_addr #0 {
  %4 = and i32 %1, 520093696
  %5 = icmp eq i32 %4, 167772160
  br i1 %5, label %7, label %6

6:                                                ; preds = %3
  tail call void @lj_trace_err(ptr noundef %0, i32 noundef 11) #7
  unreachable

7:                                                ; preds = %3
  %8 = load i64, ptr %2, align 8, !tbaa !31
  %9 = and i64 %8, 140737488355327
  %10 = inttoptr i64 %9 to ptr
  %11 = trunc i32 %1 to i16
  %12 = getelementptr inbounds nuw i8, ptr %0, i64 184
  %13 = getelementptr inbounds nuw i8, ptr %0, i64 188
  store i16 17682, ptr %13, align 4, !tbaa !31
  store i16 %11, ptr %12, align 8, !tbaa !31
  %14 = getelementptr inbounds nuw i8, ptr %0, i64 186
  store i16 20, ptr %14, align 2, !tbaa !31
  %15 = tail call i32 @lj_opt_fold(ptr noundef %0) #8
  %16 = trunc i32 %15 to i16
  %17 = getelementptr inbounds nuw i8, ptr %10, i64 10
  %18 = load i16, ptr %17, align 2, !tbaa !32
  %19 = zext i16 %18 to i32
  %20 = tail call i32 @lj_ir_kint(ptr noundef %0, i32 noundef %19) #8
  %21 = trunc i32 %20 to i16
  store i16 2195, ptr %13, align 4, !tbaa !31
  store i16 %16, ptr %12, align 8, !tbaa !31
  store i16 %21, ptr %14, align 2, !tbaa !31
  %22 = tail call i32 @lj_opt_fold(ptr noundef %0) #8
  ret ptr %10
}